target datalayout = "e-m:e-p270:32:32-p271:32:32-p272:64:64-i64:64-i128:128-f80:128-n8:16:32:64-S128"
target triple = "x86_64-pc-linux-gnu"

%struct.PageHeaderData = type { %struct.PageXLogRecPtr, i16, i16, i16, i16, i16, i16, i32, [0 x %struct.ItemIdData] }
%struct.PageXLogRecPtr = type { i32, i32 }
%struct.ItemIdData = type { i32 }
%struct.HashPageOpaqueData = type { i32, i32, i32, i16, i16 }
%struct.ItemPointerData = type { %struct.BlockIdData, i16 }
%struct.BlockIdData = type { i16, i16 }
%struct.HASHCTL = type { i64, i64, i64, i64, i64, i64, ptr, ptr, ptr, ptr, ptr, ptr }
%struct.IndexTupleData = type { %struct.ItemPointerData, i16 }

@.str = private unnamed_addr constant [27 x i8] c"hash AM does not use P_NEW\00", align 1
@.str.1 = private unnamed_addr constant [11 x i8] c"hashpage.c\00", align 1
@__func__._hash_getbuf = private unnamed_addr constant [13 x i8] c"_hash_getbuf\00", align 1
@CurrentMemoryContext = external global ptr, align 8
@.str.6 = private unnamed_addr constant [13 x i8] c"bucket ctids\00", align 1
@LocalBufferBlockPointers = external global ptr, align 8
@BufferBlocks = external global ptr, align 8

; Function Attrs: inlinehint nounwind uwtable
define internal ptr @BufferGetBlock(i32 noundef %0) #4 {
  %2 = alloca ptr, align 8
  %3 = alloca i32, align 4
  store i32 %0, ptr %3, align 4
  %4 = load i32, ptr %3, align 4
  %5 = icmp slt i32 %4, 0
  br i1 %5, label %6, label %14

6:                                                ; preds = %1
  %7 = load ptr, ptr @LocalBufferBlockPointers, align 8
  %8 = load i32, ptr %3, align 4
  %9 = sub i32 0, %8
  %10 = sub i32 %9, 1
  %11 = sext i32 %10 to i64
  %12 = getelementptr inbounds ptr, ptr %7, i64 %11
  %13 = load ptr, ptr %12, align 8
  store ptr %13, ptr %2, align 8
  br label %21

14:                                               ; preds = %1
  %15 = load ptr, ptr @BufferBlocks, align 8
  %16 = load i32, ptr %3, align 4
  %17 = sub i32 %16, 1
  %18 = sext i32 %17 to i64
  %19 = mul i64 %18, 8192
  %20 = getelementptr inbounds nuw i8, ptr %15, i64 %19
  store ptr %20, ptr %2, align 8
  br label %21

21:                                               ; preds = %14, %6
  %22 = load ptr, ptr %2, align 8
  ret ptr %22
}

; Function Attrs: nounwind uwtable
define dso_local void @_hash_dropbuf(ptr noundef %0, i32 noundef %1) #0 {
  %3 = alloca ptr, align 8
  %4 = alloca i32, align 4
  store ptr %0, ptr %3, align 8
  store i32 %1, ptr %4, align 4
  %5 = load i32, ptr %4, align 4
  call void @ReleaseBuffer(i32 noundef %5)
  ret void
}

; Function Attrs: inlinehint nounwind uwtable
define internal zeroext i1 @BlockNumberIsValid(i32 noundef %0) #4 {
  %2 = alloca i32, align 4
  store i32 %0, ptr %2, align 4
  %3 = load i32, ptr %2, align 4
  %4 = icmp ne i32 %3, -1
  ret i1 %4
}

; Function Attrs: nounwind uwtable
define dso_local void @_hash_relbuf(ptr noundef %0, i32 noundef %1) #0 {
  %3 = alloca ptr, align 8
  %4 = alloca i32, align 4
  store ptr %0, ptr %3, align 8
  store i32 %1, ptr %4, align 4
  %5 = load i32, ptr %4, align 4
  call void @UnlockReleaseBuffer(i32 noundef %5)
  ret void
}

; Function Attrs: inlinehint nounwind uwtable
define internal ptr @PageGetItem(ptr noundef %0, ptr noundef %1) #4 {
  %3 = alloca ptr, align 8
  %4 = alloca ptr, align 8
  store ptr %0, ptr %3, align 8
  store ptr %1, ptr %4, align 8
  %5 = load ptr, ptr %3, align 8
  %6 = load ptr, ptr %4, align 8
  %7 = load i32, ptr %6, align 4
  %8 = and i32 %7, 32767
  %9 = sext i32 %8 to i64
  %10 = getelementptr inbounds i8, ptr %5, i64 %9
  ret ptr %10
}

; Function Attrs: inlinehint nounwind uwtable
define internal ptr @PageGetItemId(ptr noundef %0, i16 noundef zeroext %1) #4 {
  %3 = alloca ptr, align 8
  %4 = alloca i16, align 2
  store ptr %0, ptr %3, align 8
  store i16 %1, ptr %4, align 2
  %5 = load ptr, ptr %3, align 8
  %6 = getelementptr inbounds nuw %struct.PageHeaderData, ptr %5, i32 0, i32 8
  %7 = load i16, ptr %4, align 2
  %8 = zext i16 %7 to i32
  %9 = sub i32 %8, 1
  %10 = sext i32 %9 to i64
  %11 = getelementptr inbounds [0 x %struct.ItemIdData], ptr %6, i64 0, i64 %10
  ret ptr %11
}

; Function Attrs: inlinehint nounwind uwtable
define internal zeroext i16 @PageGetMaxOffsetNumber(ptr noundef %0) #4 {
  %2 = alloca i16, align 2
  %3 = alloca ptr, align 8
  %4 = alloca ptr, align 8
  %5 = alloca i32, align 4
  store ptr %0, ptr %3, align 8
  call void @llvm.lifetime.start.p0(i64 8, ptr %4) #9
  %6 = load ptr, ptr %3, align 8
  store ptr %6, ptr %4, align 8
  %7 = load ptr, ptr %4, align 8
  %8 = getelementptr inbounds nuw %struct.PageHeaderData, ptr %7, i32 0, i32 3
  %9 = load i16, ptr %8, align 4
  %10 = zext i16 %9 to i64
  %11 = icmp ule i64 %10, 24
  br i1 %11, label %12, label %13

12:                                               ; preds = %1
  store i16 0, ptr %2, align 2
  store i32 1, ptr %5, align 4
  br label %21

13:                                               ; preds = %1
  %14 = load ptr, ptr %4, align 8
  %15 = getelementptr inbounds nuw %struct.PageHeaderData, ptr %14, i32 0, i32 3
  %16 = load i16, ptr %15, align 4
  %17 = zext i16 %16 to i64
  %18 = sub i64 %17, 24
  %19 = udiv i64 %18, 4
  %20 = trunc i64 %19 to i16
  store i16 %20, ptr %2, align 2
  store i32 1, ptr %5, align 4
  br label %21

21:                                               ; preds = %13, %12
  call void @llvm.lifetime.end.p0(i64 8, ptr %4) #9
  %22 = load i16, ptr %2, align 2
  ret i16 %22
}

; Function Attrs: inlinehint nounwind uwtable
define internal void @PageValidateSpecialPointer(ptr noundef %0) #4 {
  %2 = alloca ptr, align 8
  store ptr %0, ptr %2, align 8
  ret void
}

; Function Attrs: inlinehint nounwind uwtable
define internal ptr @BufferGetPage(i32 noundef %0) #4 {
  %2 = alloca i32, align 4
  store i32 %0, ptr %2, align 4
  %3 = load i32, ptr %2, align 4
  %4 = call ptr @BufferGetBlock(i32 noundef %3)
  ret ptr %4
}

; Function Attrs: nounwind uwtable
define dso_local i32 @_hash_getbuf(ptr noundef %0, i32 noundef %1, i32 noundef %2, i32 noundef %3) #0 {
  %5 = alloca ptr, align 8
  %6 = alloca i32, align 4
  %7 = alloca i32, align 4
  %8 = alloca i32, align 4
  %9 = alloca i32, align 4
  store ptr %0, ptr %5, align 8
  store i32 %1, ptr %6, align 4
  store i32 %2, ptr %7, align 4
  store i32 %3, ptr %8, align 4
  call void @llvm.lifetime.start.p0(i64 4, ptr %9) #9
  %10 = load i32, ptr %6, align 4
  %11 = icmp eq i32 %10, -1
  br i1 %11, label %12, label %23

12:                                               ; preds = %4
  br label %13

13:                                               ; preds = %12
  br i1 true, label %14, label %16

14:                                               ; preds = %13
  %15 = call zeroext i1 @errstart_cold(i32 noundef 21, ptr noundef null) #10
  br i1 %15, label %18, label %20

16:                                               ; preds = %13
  %17 = call zeroext i1 @errstart(i32 noundef 21, ptr noundef null)
  br i1 %17, label %18, label %20

18:                                               ; preds = %16, %14
  %19 = call i32 (ptr, ...) @errmsg_internal(ptr noundef @.str)
  call void @errfinish(ptr noundef @.str.1, i32 noundef 75, ptr noundef @__func__._hash_getbuf)
  br label %20

20:                                               ; preds = %18, %16, %14
  unreachable

21:                                               ; No predecessors!
  br label %22

22:                                               ; preds = %21
  br label %23

23:                                               ; preds = %22, %4
  %24 = load ptr, ptr %5, align 8
  %25 = load i32, ptr %6, align 4
  %26 = call i32 @ReadBuffer(ptr noundef %24, i32 noundef %25)
  store i32 %26, ptr %9, align 4
  %27 = load i32, ptr %7, align 4
  %28 = icmp ne i32 %27, -1
  br i1 %28, label %29, label %32

29:                                               ; preds = %23
  %30 = load i32, ptr %9, align 4
  %31 = load i32, ptr %7, align 4
  call void @LockBuffer(i32 noundef %30, i32 noundef %31)
  br label %32

32:                                               ; preds = %29, %23
  %33 = load ptr, ptr %5, align 8
  %34 = load i32, ptr %9, align 4
  %35 = load i32, ptr %8, align 4
  call void @_hash_checkpage(ptr noundef %33, i32 noundef %34, i32 noundef %35)
  %36 = load i32, ptr %9, align 4
  call void @llvm.lifetime.end.p0(i64 4, ptr %9) #9
  ret i32 %36
}

; Function Attrs: nounwind uwtable
define dso_local void @_hash_finish_split(ptr noundef %0, i32 noundef %1, i32 noundef %2, i32 noundef %3, i32 noundef %4, i32 noundef %5, i32 noundef %6) #0 {
  %8 = alloca ptr, align 8
  %9 = alloca i32, align 4
  %10 = alloca i32, align 4
  %11 = alloca i32, align 4
  %12 = alloca i32, align 4
  %13 = alloca i32, align 4
  %14 = alloca i32, align 4
  %15 = alloca %struct.HASHCTL, align 8
  %16 = alloca ptr, align 8
  %17 = alloca i32, align 4
  %18 = alloca i32, align 4
  %19 = alloca ptr, align 8
  %20 = alloca i32, align 4
  %21 = alloca i32, align 4
  %22 = alloca ptr, align 8
  %23 = alloca i32, align 4
  %24 = alloca i8, align 1
  %25 = alloca i16, align 2
  %26 = alloca i16, align 2
  %27 = alloca ptr, align 8
  %28 = alloca i32, align 4
  store ptr %0, ptr %8, align 8
  store i32 %1, ptr %9, align 4
  store i32 %2, ptr %10, align 4
  store i32 %3, ptr %11, align 4
  store i32 %4, ptr %12, align 4
  store i32 %5, ptr %13, align 4
  store i32 %6, ptr %14, align 4
  call void @llvm.lifetime.start.p0(i64 96, ptr %15) #9
  call void @llvm.lifetime.start.p0(i64 8, ptr %16) #9
  call void @llvm.lifetime.start.p0(i64 4, ptr %17) #9
  store i32 0, ptr %17, align 4
  call void @llvm.lifetime.start.p0(i64 4, ptr %18) #9
  call void @llvm.lifetime.start.p0(i64 8, ptr %19) #9
  call void @llvm.lifetime.start.p0(i64 4, ptr %20) #9
  call void @llvm.lifetime.start.p0(i64 4, ptr %21) #9
  call void @llvm.lifetime.start.p0(i64 8, ptr %22) #9
  call void @llvm.lifetime.start.p0(i64 4, ptr %23) #9
  call void @llvm.lifetime.start.p0(i64 1, ptr %24) #9
  %29 = getelementptr inbounds nuw %struct.HASHCTL, ptr %15, i32 0, i32 4
  store i64 6, ptr %29, align 8
  %30 = getelementptr inbounds nuw %struct.HASHCTL, ptr %15, i32 0, i32 5
  store i64 6, ptr %30, align 8
  %31 = load ptr, ptr @CurrentMemoryContext, align 8
  %32 = getelementptr inbounds nuw %struct.HASHCTL, ptr %15, i32 0, i32 10
  store ptr %31, ptr %32, align 8
  %33 = call ptr @hash_create(ptr noundef @.str.6, i64 noundef 256, ptr noundef %15, i32 noundef 1064)
  store ptr %33, ptr %16, align 8
  %34 = load ptr, ptr %8, align 8
  %35 = load i32, ptr %11, align 4
  %36 = call i32 @_hash_get_newblock_from_oldbucket(ptr noundef %34, i32 noundef %35)
  store i32 %36, ptr %20, align 4
  store i32 %36, ptr %21, align 4
  br label %37

37:                                               ; preds = %99, %7
  call void @llvm.lifetime.start.p0(i64 2, ptr %25) #9
  call void @llvm.lifetime.start.p0(i64 2, ptr %26) #9
  %38 = load ptr, ptr %8, align 8
  %39 = load i32, ptr %20, align 4
  %40 = call i32 @_hash_getbuf(ptr noundef %38, i32 noundef %39, i32 noundef 1, i32 noundef 3)
  store i32 %40, ptr %18, align 4
  %41 = load i32, ptr %20, align 4
  %42 = load i32, ptr %21, align 4
  %43 = icmp eq i32 %41, %42
  br i1 %43, label %44, label %46

44:                                               ; preds = %37
  %45 = load i32, ptr %18, align 4
  store i32 %45, ptr %17, align 4
  br label %46

46:                                               ; preds = %44, %37
  %47 = load i32, ptr %18, align 4
  %48 = call ptr @BufferGetPage(i32 noundef %47)
  store ptr %48, ptr %19, align 8
  %49 = load ptr, ptr %19, align 8
  call void @PageValidateSpecialPointer(ptr noundef %49)
  %50 = load ptr, ptr %19, align 8
  %51 = load ptr, ptr %19, align 8
  %52 = getelementptr inbounds nuw %struct.PageHeaderData, ptr %51, i32 0, i32 5
  %53 = load i16, ptr %52, align 4
  %54 = zext i16 %53 to i32
  %55 = sext i32 %54 to i64
  %56 = getelementptr inbounds i8, ptr %50, i64 %55
  store ptr %56, ptr %22, align 8
  %57 = load ptr, ptr %19, align 8
  %58 = call zeroext i16 @PageGetMaxOffsetNumber(ptr noundef %57)
  store i16 %58, ptr %26, align 2
  store i16 1, ptr %25, align 2
  br label %59

59:                                               ; preds = %75, %46
  %60 = load i16, ptr %25, align 2
  %61 = zext i16 %60 to i32
  %62 = load i16, ptr %26, align 2
  %63 = zext i16 %62 to i32
  %64 = icmp sle i32 %61, %63
  br i1 %64, label %65, label %80

65:                                               ; preds = %59
  call void @llvm.lifetime.start.p0(i64 8, ptr %27) #9
  %66 = load ptr, ptr %19, align 8
  %67 = load ptr, ptr %19, align 8
  %68 = load i16, ptr %25, align 2
  %69 = call ptr @PageGetItemId(ptr noundef %67, i16 noundef zeroext %68)
  %70 = call ptr @PageGetItem(ptr noundef %66, ptr noundef %69)
  store ptr %70, ptr %27, align 8
  %71 = load ptr, ptr %16, align 8
  %72 = load ptr, ptr %27, align 8
  %73 = getelementptr inbounds nuw %struct.IndexTupleData, ptr %72, i32 0, i32 0
  %74 = call ptr @hash_search(ptr noundef %71, ptr noundef %73, i32 noundef 1, ptr noundef %24)
  call void @llvm.lifetime.end.p0(i64 8, ptr %27) #9
  br label %75

75:                                               ; preds = %65
  %76 = load i16, ptr %25, align 2
  %77 = zext i16 %76 to i32
  %78 = add i32 1, %77
  %79 = trunc i32 %78 to i16
  store i16 %79, ptr %25, align 2
  br label %59, !llvm.loop !10

80:                                               ; preds = %59
  %81 = load ptr, ptr %22, align 8
  %82 = getelementptr inbounds nuw %struct.HashPageOpaqueData, ptr %81, i32 0, i32 1
  %83 = load i32, ptr %82, align 4
  store i32 %83, ptr %20, align 4
  %84 = load i32, ptr %18, align 4
  %85 = load i32, ptr %17, align 4
  %86 = icmp eq i32 %84, %85
  br i1 %86, label %87, label %89

87:                                               ; preds = %80
  %88 = load i32, ptr %18, align 4
  call void @LockBuffer(i32 noundef %88, i32 noundef 0)
  br label %92

89:                                               ; preds = %80
  %90 = load ptr, ptr %8, align 8
  %91 = load i32, ptr %18, align 4
  call void @_hash_relbuf(ptr noundef %90, i32 noundef %91)
  br label %92

92:                                               ; preds = %89, %87
  %93 = load i32, ptr %20, align 4
  %94 = call zeroext i1 @BlockNumberIsValid(i32 noundef %93)
  br i1 %94, label %96, label %95

95:                                               ; preds = %92
  store i32 2, ptr %28, align 4
  br label %97

96:                                               ; preds = %92
  store i32 0, ptr %28, align 4
  br label %97

97:                                               ; preds = %96, %95
  call void @llvm.lifetime.end.p0(i64 2, ptr %26) #9
  call void @llvm.lifetime.end.p0(i64 2, ptr %25) #9
  %98 = load i32, ptr %28, align 4
  switch i32 %98, label %141 [
    i32 0, label %99
    i32 2, label %100
  ]

99:                                               ; preds = %97
  br label %37

100:                                              ; preds = %97
  %101 = load i32, ptr %10, align 4
  %102 = call zeroext i1 @ConditionalLockBufferForCleanup(i32 noundef %101)
  br i1 %102, label %105, label %103

103:                                              ; preds = %100
  %104 = load ptr, ptr %16, align 8
  call void @hash_destroy(ptr noundef %104)
  store i32 1, ptr %28, align 4
  br label %138

105:                                              ; preds = %100
  %106 = load i32, ptr %17, align 4
  %107 = call zeroext i1 @ConditionalLockBufferForCleanup(i32 noundef %106)
  br i1 %107, label %111, label %108

108:                                              ; preds = %105
  %109 = load i32, ptr %10, align 4
  call void @LockBuffer(i32 noundef %109, i32 noundef 0)
  %110 = load ptr, ptr %16, align 8
  call void @hash_destroy(ptr noundef %110)
  store i32 1, ptr %28, align 4
  br label %138

111:                                              ; preds = %105
  %112 = load i32, ptr %17, align 4
  %113 = call ptr @BufferGetPage(i32 noundef %112)
  store ptr %113, ptr %19, align 8
  %114 = load ptr, ptr %19, align 8
  call void @PageValidateSpecialPointer(ptr noundef %114)
  %115 = load ptr, ptr %19, align 8
  %116 = load ptr, ptr %19, align 8
  %117 = getelementptr inbounds nuw %struct.PageHeaderData, ptr %116, i32 0, i32 5
  %118 = load i16, ptr %117, align 4
  %119 = zext i16 %118 to i32
  %120 = sext i32 %119 to i64
  %121 = getelementptr inbounds i8, ptr %115, i64 %120
  store ptr %121, ptr %22, align 8
  %122 = load ptr, ptr %22, align 8
  %123 = getelementptr inbounds nuw %struct.HashPageOpaqueData, ptr %122, i32 0, i32 2
  %124 = load i32, ptr %123, align 4
  store i32 %124, ptr %23, align 4
  %125 = load ptr, ptr %8, align 8
  %126 = load i32, ptr %9, align 4
  %127 = load i32, ptr %11, align 4
  %128 = load i32, ptr %23, align 4
  %129 = load i32, ptr %10, align 4
  %130 = load i32, ptr %17, align 4
  %131 = load ptr, ptr %16, align 8
  %132 = load i32, ptr %12, align 4
  %133 = load i32, ptr %13, align 4
  %134 = load i32, ptr %14, align 4
  call void @_hash_splitbucket(ptr noundef %125, i32 noundef %126, i32 noundef %127, i32 noundef %128, i32 noundef %129, i32 noundef %130, ptr noundef %131, i32 noundef %132, i32 noundef %133, i32 noundef %134)
  %135 = load ptr, ptr %8, align 8
  %136 = load i32, ptr %17, align 4
  call void @_hash_dropbuf(ptr noundef %135, i32 noundef %136)
  %137 = load ptr, ptr %16, align 8
  call void @hash_destroy(ptr noundef %137)
  store i32 0, ptr %28, align 4
  br label %138

138:                                              ; preds = %111, %108, %103
  call void @llvm.lifetime.end.p0(i64 1, ptr %24) #9
  call void @llvm.lifetime.end.p0(i64 4, ptr %23) #9
  call void @llvm.lifetime.end.p0(i64 8, ptr %22) #9
  call void @llvm.lifetime.end.p0(i64 4, ptr %21) #9
  call void @llvm.lifetime.end.p0(i64 4, ptr %20) #9
  call void @llvm.lifetime.end.p0(i64 8, ptr %19) #9
  call void @llvm.lifetime.end.p0(i64 4, ptr %18) #9
  call void @llvm.lifetime.end.p0(i64 4, ptr %17) #9
  call void @llvm.lifetime.end.p0(i64 8, ptr %16) #9
  call void @llvm.lifetime.end.p0(i64 96, ptr %15) #9
  %139 = load i32, ptr %28, align 4
  switch i32 %139, label %141 [
    i32 0, label %140
    i32 1, label %140
  ]

140:                                              ; preds = %138, %138
  ret void

141:                                              ; preds = %138, %97
  unreachable
}