; Function Attrs: nounwind uwtable
define dso_local void @_hash_finish_split(ptr noundef %0, i32 noundef %1, i32 noundef %2, i32 noundef %3, i32 noundef %4, i32 noundef %5, i32 noundef %6) local_unnamed_addr #0 {
  %8 = alloca %struct.HASHCTL, align 8
  %9 = alloca i8, align 1
  call void @llvm.lifetime.start.p0(i64 96, ptr nonnull %8) #10
  call void @llvm.lifetime.start.p0(i64 1, ptr nonnull %9) #10
  %10 = getelementptr inbounds nuw i8, ptr %8, i64 32
  store i64 6, ptr %10, align 8
  %11 = getelementptr inbounds nuw i8, ptr %8, i64 40
  store i64 6, ptr %11, align 8
  %12 = load ptr, ptr @CurrentMemoryContext, align 8
  %13 = getelementptr inbounds nuw i8, ptr %8, i64 80
  store ptr %12, ptr %13, align 8
  %14 = call ptr @hash_create(ptr noundef nonnull @.str.6, i64 noundef 256, ptr noundef nonnull %8, i32 noundef 1064) #10
  %15 = call i32 @_hash_get_newblock_from_oldbucket(ptr noundef %0, i32 noundef %3) #10
  br label %16

16:                                               ; preds = %61, %7
  %.052 = phi i32 [ %15, %7 ], [ %57, %61 ]
  %.050 = phi i32 [ 0, %7 ], [ %spec.select, %61 ]
  %17 = icmp eq i32 %.052, -1
  br i1 %17, label %18, label %_hash_getbuf.exit

18:                                               ; preds = %16
  %19 = call zeroext i1 @errstart_cold(i32 noundef 21, ptr noundef null) #9
  call void @llvm.assume(i1 %19)
  %20 = call i32 (ptr, ...) @errmsg_internal(ptr noundef nonnull @.str) #10
  call void @errfinish(ptr noundef nonnull @.str.1, i32 noundef 75, ptr noundef nonnull @__func__._hash_getbuf) #10
  unreachable

_hash_getbuf.exit:                                ; preds = %16
  %21 = call i32 @ReadBuffer(ptr noundef %0, i32 noundef %.052) #10
  call void @LockBuffer(i32 noundef %21, i32 noundef 1) #10
  call void @_hash_checkpage(ptr noundef %0, i32 noundef %21, i32 noundef 3) #10
  %22 = icmp eq i32 %.052, %15
  %spec.select = select i1 %22, i32 %21, i32 %.050
  %23 = icmp slt i32 %21, 0
  br i1 %23, label %24, label %30

24:                                               ; preds = %_hash_getbuf.exit
  %25 = load ptr, ptr @LocalBufferBlockPointers, align 8
  %26 = xor i32 %21, -1
  %27 = zext nneg i32 %26 to i64
  %28 = getelementptr inbounds nuw ptr, ptr %25, i64 %27
  %29 = load ptr, ptr %28, align 8
  br label %BufferGetPage.exit

30:                                               ; preds = %_hash_getbuf.exit
  %31 = load ptr, ptr @BufferBlocks, align 8
  %32 = add nsw i32 %21, -1
  %33 = sext i32 %32 to i64
  %34 = shl nsw i64 %33, 13
  %35 = getelementptr inbounds nuw i8, ptr %31, i64 %34
  br label %BufferGetPage.exit

BufferGetPage.exit:                               ; preds = %24, %30
  %.0.i.i = phi ptr [ %29, %24 ], [ %35, %30 ]
  %36 = getelementptr inbounds nuw i8, ptr %.0.i.i, i64 16
  %37 = load i16, ptr %36, align 4
  %38 = zext i16 %37 to i64
  %39 = getelementptr inbounds nuw i8, ptr %.0.i.i, i64 %38
  %40 = getelementptr i8, ptr %.0.i.i, i64 12
  %.val = load i16, ptr %40, align 4
  %41 = icmp ult i16 %.val, 25
  %42 = zext i16 %.val to i32
  %43 = add nuw nsw i32 %42, 262120
  %44 = and i32 %43, 262140
  %.not6062 = icmp eq i32 %44, 0
  %.not60 = select i1 %41, i1 true, i1 %.not6062
  br i1 %.not60, label %._crit_edge, label %.lr.ph

.lr.ph:                                           ; preds = %BufferGetPage.exit
  %45 = lshr i32 %43, 2
  %46 = getelementptr inbounds nuw i8, ptr %.0.i.i, i64 24
  %47 = and i32 %45, 65535
  %48 = add nuw nsw i32 %47, 1
  %wide.trip.count = zext nneg i32 %48 to i64
  br label %49

49:                                               ; preds = %.lr.ph, %49
  %indvars.iv = phi i64 [ 1, %.lr.ph ], [ %indvars.iv.next, %49 ]
  %50 = add nsw i64 %indvars.iv, -1
  %51 = getelementptr inbounds [0 x %struct.ItemIdData], ptr %46, i64 0, i64 %50
  %.val56 = load i32, ptr %51, align 4
  %52 = and i32 %.val56, 32767
  %53 = zext nneg i32 %52 to i64
  %54 = getelementptr inbounds nuw i8, ptr %.0.i.i, i64 %53
  %55 = call ptr @hash_search(ptr noundef %14, ptr noundef %54, i32 noundef 1, ptr noundef nonnull %9) #10
  %indvars.iv.next = add nuw nsw i64 %indvars.iv, 1
  %exitcond = icmp eq i64 %indvars.iv.next, %wide.trip.count
  br i1 %exitcond, label %._crit_edge, label %49, !llvm.loop !8

._crit_edge:                                      ; preds = %49, %BufferGetPage.exit
  %56 = getelementptr inbounds nuw i8, ptr %39, i64 4
  %57 = load i32, ptr %56, align 4
  %58 = icmp eq i32 %21, %spec.select
  br i1 %58, label %59, label %60

59:                                               ; preds = %._crit_edge
  call void @LockBuffer(i32 noundef %21, i32 noundef 0) #10
  br label %61

60:                                               ; preds = %._crit_edge
  call void @UnlockReleaseBuffer(i32 noundef %21) #10
  br label %61

61:                                               ; preds = %60, %59
  %.not59 = icmp eq i32 %57, -1
  br i1 %.not59, label %62, label %16

62:                                               ; preds = %61
  %63 = call zeroext i1 @ConditionalLockBufferForCleanup(i32 noundef %2) #10
  br i1 %63, label %64, label %87

64:                                               ; preds = %62
  %65 = call zeroext i1 @ConditionalLockBufferForCleanup(i32 noundef %spec.select) #10
  br i1 %65, label %67, label %66

66:                                               ; preds = %64
  call void @LockBuffer(i32 noundef %2, i32 noundef 0) #10
  br label %87

67:                                               ; preds = %64
  %68 = icmp slt i32 %spec.select, 0
  br i1 %68, label %69, label %75

69:                                               ; preds = %67
  %70 = load ptr, ptr @LocalBufferBlockPointers, align 8
  %71 = xor i32 %spec.select, -1
  %72 = zext nneg i32 %71 to i64
  %73 = getelementptr inbounds nuw ptr, ptr %70, i64 %72
  %74 = load ptr, ptr %73, align 8
  br label %BufferGetPage.exit58

75:                                               ; preds = %67
  %76 = load ptr, ptr @BufferBlocks, align 8
  %77 = add nsw i32 %spec.select, -1
  %78 = sext i32 %77 to i64
  %79 = shl nsw i64 %78, 13
  %80 = getelementptr inbounds nuw i8, ptr %76, i64 %79
  br label %BufferGetPage.exit58

BufferGetPage.exit58:                             ; preds = %69, %75
  %.0.i.i57 = phi ptr [ %74, %69 ], [ %80, %75 ]
  %81 = getelementptr inbounds nuw i8, ptr %.0.i.i57, i64 16
  %82 = load i16, ptr %81, align 4
  %83 = zext i16 %82 to i64
  %84 = getelementptr inbounds nuw i8, ptr %.0.i.i57, i64 %83
  %85 = getelementptr inbounds nuw i8, ptr %84, i64 8
  %86 = load i32, ptr %85, align 4
  call fastcc void @_hash_splitbucket(ptr noundef %0, i32 noundef %1, i32 noundef %3, i32 noundef %86, i32 noundef %2, i32 noundef %spec.select, ptr noundef %14, i32 noundef %4, i32 noundef %5, i32 noundef %6)
  call void @ReleaseBuffer(i32 noundef %spec.select) #10
  br label %87

87:                                               ; preds = %62, %BufferGetPage.exit58, %66
  call void @hash_destroy(ptr noundef %14) #10
  call void @llvm.lifetime.end.p0(i64 1, ptr nonnull %9) #10
  call void @llvm.lifetime.end.p0(i64 96, ptr nonnull %8) #10
  ret void
}